target datalayout = "e-m:e-p270:32:32-p271:32:32-p272:64:64-i64:64-i128:128-f80:128-n8:16:32:64-S128"
target triple = "x86_64-pc-linux-gnu"

%struct.If_LibLut_t_ = type { ptr, i32, i32, [33 x float], [33 x [33 x float]] }

@.str.12 = private unnamed_addr constant [38 x i8] c"# The area/delay of k-variable LUTs:\0A\00", align 1
@.str.13 = private unnamed_addr constant [23 x i8] c"# k    area     delay\0A\00", align 1
@.str.14 = private unnamed_addr constant [13 x i8] c"%d   %7.2f  \00", align 1
@.str.15 = private unnamed_addr constant [7 x i8] c" %7.2f\00", align 1
@.str.16 = private unnamed_addr constant [2 x i8] c"\0A\00", align 1
@.str.17 = private unnamed_addr constant [20 x i8] c"%d   %7.2f   %7.2f\0A\00", align 1

; Function Attrs: nounwind uwtable
define void @If_LibLutPrint(ptr noundef %0) #0 {
  %2 = alloca ptr, align 8
  %3 = alloca i32, align 4
  %4 = alloca i32, align 4
  store ptr %0, ptr %2, align 8, !tbaa !15
  call void @llvm.lifetime.start.p0(i64 4, ptr %3) #12
  call void @llvm.lifetime.start.p0(i64 4, ptr %4) #12
  call void (i32, ptr, ...) @Abc_Print(i32 noundef 1, ptr noundef @.str.12)
  call void (i32, ptr, ...) @Abc_Print(i32 noundef 1, ptr noundef @.str.13)
  %5 = load ptr, ptr %2, align 8, !tbaa !15
  %6 = getelementptr inbounds nuw %struct.If_LibLut_t_, ptr %5, i32 0, i32 2
  %7 = load i32, ptr %6, align 4, !tbaa !24
  %8 = icmp ne i32 %7, 0
  br i1 %8, label %9, label %48

9:                                                ; preds = %1
  store i32 1, ptr %3, align 4, !tbaa !17
  br label %10

10:                                               ; preds = %44, %9
  %11 = load i32, ptr %3, align 4, !tbaa !17
  %12 = load ptr, ptr %2, align 8, !tbaa !15
  %13 = getelementptr inbounds nuw %struct.If_LibLut_t_, ptr %12, i32 0, i32 1
  %14 = load i32, ptr %13, align 8, !tbaa !26
  %15 = icmp sle i32 %11, %14
  br i1 %15, label %16, label %47

16:                                               ; preds = %10
  %17 = load i32, ptr %3, align 4, !tbaa !17
  %18 = load ptr, ptr %2, align 8, !tbaa !15
  %19 = getelementptr inbounds nuw %struct.If_LibLut_t_, ptr %18, i32 0, i32 3
  %20 = load i32, ptr %3, align 4, !tbaa !17
  %21 = sext i32 %20 to i64
  %22 = getelementptr inbounds [33 x float], ptr %19, i64 0, i64 %21
  %23 = load float, ptr %22, align 4, !tbaa !21
  %24 = fpext float %23 to double
  call void (i32, ptr, ...) @Abc_Print(i32 noundef 1, ptr noundef @.str.14, i32 noundef %17, double noundef %24)
  store i32 0, ptr %4, align 4, !tbaa !17
  br label %25

25:                                               ; preds = %40, %16
  %26 = load i32, ptr %4, align 4, !tbaa !17
  %27 = load i32, ptr %3, align 4, !tbaa !17
  %28 = icmp slt i32 %26, %27
  br i1 %28, label %29, label %43

29:                                               ; preds = %25
  %30 = load ptr, ptr %2, align 8, !tbaa !15
  %31 = getelementptr inbounds nuw %struct.If_LibLut_t_, ptr %30, i32 0, i32 4
  %32 = load i32, ptr %3, align 4, !tbaa !17
  %33 = sext i32 %32 to i64
  %34 = getelementptr inbounds [33 x [33 x float]], ptr %31, i64 0, i64 %33
  %35 = load i32, ptr %4, align 4, !tbaa !17
  %36 = sext i32 %35 to i64
  %37 = getelementptr inbounds [33 x float], ptr %34, i64 0, i64 %36
  %38 = load float, ptr %37, align 4, !tbaa !21
  %39 = fpext float %38 to double
  call void (i32, ptr, ...) @Abc_Print(i32 noundef 1, ptr noundef @.str.15, double noundef %39)
  br label %40

40:                                               ; preds = %29
  %41 = load i32, ptr %4, align 4, !tbaa !17
  %42 = add nsw i32 %41, 1
  store i32 %42, ptr %4, align 4, !tbaa !17
  br label %25, !llvm.loop !45

43:                                               ; preds = %25
  call void (i32, ptr, ...) @Abc_Print(i32 noundef 1, ptr noundef @.str.16)
  br label %44

44:                                               ; preds = %43
  %45 = load i32, ptr %3, align 4, !tbaa !17
  %46 = add nsw i32 %45, 1
  store i32 %46, ptr %3, align 4, !tbaa !17
  br label %10, !llvm.loop !46

47:                                               ; preds = %10
  br label %76

48:                                               ; preds = %1
  store i32 1, ptr %3, align 4, !tbaa !17
  br label %49

49:                                               ; preds = %72, %48
  %50 = load i32, ptr %3, align 4, !tbaa !17
  %51 = load ptr, ptr %2, align 8, !tbaa !15
  %52 = getelementptr inbounds nuw %struct.If_LibLut_t_, ptr %51, i32 0, i32 1
  %53 = load i32, ptr %52, align 8, !tbaa !26
  %54 = icmp sle i32 %50, %53
  br i1 %54, label %55, label %75

55:                                               ; preds = %49
  %56 = load i32, ptr %3, align 4, !tbaa !17
  %57 = load ptr, ptr %2, align 8, !tbaa !15
  %58 = getelementptr inbounds nuw %struct.If_LibLut_t_, ptr %57, i32 0, i32 3
  %59 = load i32, ptr %3, align 4, !tbaa !17
  %60 = sext i32 %59 to i64
  %61 = getelementptr inbounds [33 x float], ptr %58, i64 0, i64 %60
  %62 = load float, ptr %61, align 4, !tbaa !21
  %63 = fpext float %62 to double
  %64 = load ptr, ptr %2, align 8, !tbaa !15
  %65 = getelementptr inbounds nuw %struct.If_LibLut_t_, ptr %64, i32 0, i32 4
  %66 = load i32, ptr %3, align 4, !tbaa !17
  %67 = sext i32 %66 to i64
  %68 = getelementptr inbounds [33 x [33 x float]], ptr %65, i64 0, i64 %67
  %69 = getelementptr inbounds [33 x float], ptr %68, i64 0, i64 0
  %70 = load float, ptr %69, align 4, !tbaa !21
  %71 = fpext float %70 to double
  call void (i32, ptr, ...) @Abc_Print(i32 noundef 1, ptr noundef @.str.17, i32 noundef %56, double noundef %63, double noundef %71)
  br label %72

72:                                               ; preds = %55
  %73 = load i32, ptr %3, align 4, !tbaa !17
  %74 = add nsw i32 %73, 1
  store i32 %74, ptr %3, align 4, !tbaa !17
  br label %49, !llvm.loop !47

75:                                               ; preds = %49
  br label %76

76:                                               ; preds = %75, %47
  call void @llvm.lifetime.end.p0(i64 4, ptr %4) #12
  call void @llvm.lifetime.end.p0(i64 4, ptr %3) #12
  ret void
}