; Function Attrs: nounwind uwtable
define void @If_LibLutPrint(ptr noundef readonly captures(none) %0) local_unnamed_addr #0 {
  tail call void (i32, ptr, ...) @Abc_Print(i32 noundef 1, ptr noundef nonnull @.str.12)
  tail call void (i32, ptr, ...) @Abc_Print(i32 noundef 1, ptr noundef nonnull @.str.13)
  %2 = getelementptr inbounds nuw i8, ptr %0, i64 12
  %3 = load i32, ptr %2, align 4, !tbaa !21
  %.not = icmp eq i32 %3, 0
  %4 = getelementptr inbounds nuw i8, ptr %0, i64 8
  %5 = load i32, ptr %4, align 8, !tbaa !15
  %.not2128 = icmp slt i32 %5, 1
  br i1 %.not, label %.preheader, label %.preheader23

.preheader23:                                     ; preds = %1
  br i1 %.not2128, label %.loopexit, label %.lr.ph

.lr.ph:                                           ; preds = %.preheader23
  %6 = getelementptr inbounds nuw i8, ptr %0, i64 16
  %7 = getelementptr inbounds nuw i8, ptr %0, i64 148
  br label %10

.preheader:                                       ; preds = %1
  br i1 %.not2128, label %.loopexit, label %.lr.ph30

.lr.ph30:                                         ; preds = %.preheader
  %8 = getelementptr inbounds nuw i8, ptr %0, i64 16
  %9 = getelementptr inbounds nuw i8, ptr %0, i64 148
  br label %22

10:                                               ; preds = %.lr.ph, %19
  %indvars.iv33 = phi i64 [ 1, %.lr.ph ], [ %indvars.iv.next34, %19 ]
  %11 = getelementptr inbounds nuw [33 x float], ptr %6, i64 0, i64 %indvars.iv33
  %12 = load float, ptr %11, align 4, !tbaa !18
  %13 = fpext float %12 to double
  %14 = trunc nuw nsw i64 %indvars.iv33 to i32
  tail call void (i32, ptr, ...) @Abc_Print(i32 noundef 1, ptr noundef nonnull @.str.14, i32 noundef %14, double noundef %13)
  br label %15

15:                                               ; preds = %10, %15
  %indvars.iv = phi i64 [ 0, %10 ], [ %indvars.iv.next, %15 ]
  %16 = getelementptr inbounds nuw [33 x [33 x float]], ptr %7, i64 0, i64 %indvars.iv33, i64 %indvars.iv
  %17 = load float, ptr %16, align 4, !tbaa !18
  %18 = fpext float %17 to double
  tail call void (i32, ptr, ...) @Abc_Print(i32 noundef 1, ptr noundef nonnull @.str.15, double noundef %18)
  %indvars.iv.next = add nuw nsw i64 %indvars.iv, 1
  %exitcond.not = icmp eq i64 %indvars.iv.next, %indvars.iv33
  br i1 %exitcond.not, label %19, label %15, !llvm.loop !40

19:                                               ; preds = %15
  tail call void (i32, ptr, ...) @Abc_Print(i32 noundef 1, ptr noundef nonnull @.str.16)
  %indvars.iv.next34 = add nuw nsw i64 %indvars.iv33, 1
  %20 = load i32, ptr %4, align 8, !tbaa !15
  %21 = sext i32 %20 to i64
  %.not22.not = icmp slt i64 %indvars.iv33, %21
  br i1 %.not22.not, label %10, label %.loopexit, !llvm.loop !41

22:                                               ; preds = %.lr.ph30, %22
  %indvars.iv36 = phi i64 [ 1, %.lr.ph30 ], [ %indvars.iv.next37, %22 ]
  %23 = getelementptr inbounds nuw [33 x float], ptr %8, i64 0, i64 %indvars.iv36
  %24 = load float, ptr %23, align 4, !tbaa !18
  %25 = fpext float %24 to double
  %26 = getelementptr inbounds nuw [33 x [33 x float]], ptr %9, i64 0, i64 %indvars.iv36
  %27 = load float, ptr %26, align 4, !tbaa !18
  %28 = fpext float %27 to double
  %29 = trunc nuw nsw i64 %indvars.iv36 to i32
  tail call void (i32, ptr, ...) @Abc_Print(i32 noundef 1, ptr noundef nonnull @.str.17, i32 noundef %29, double noundef %25, double noundef %28)
  %indvars.iv.next37 = add nuw nsw i64 %indvars.iv36, 1
  %30 = load i32, ptr %4, align 8, !tbaa !15
  %31 = sext i32 %30 to i64
  %.not21.not = icmp slt i64 %indvars.iv36, %31
  br i1 %.not21.not, label %22, label %.loopexit, !llvm.loop !42

.loopexit:                                        ; preds = %19, %22, %.preheader23, %.preheader
  ret void
}